; Function Attrs: mustprogress uwtable
define hidden void @_ZN4cvc58internal6theory11quantifiers16SygusGrammarNorm10TypeObjectC2ENS0_8TypeNodeES5_(ptr noundef nonnull align 8 dereferenceable(488) %this, ptr nocapture noundef readonly %src_tn, ptr noundef %unres_tn) unnamed_addr #3 align 2 personality ptr @__gxx_personality_v0 {
entry:
  %ref.tmp = alloca %"class.std::__cxx11::basic_string", align 8
  %0 = load ptr, ptr %src_tn, align 8
  store ptr %0, ptr %this, align 8
  %bf.load.i.i = load i64, ptr %0, align 8
  %bf.lshr.i.i = lshr i64 %bf.load.i.i, 40
  %1 = trunc i64 %bf.lshr.i.i to i32
  %bf.cast.i.i = and i32 %1, 1048575
  %cmp.i.i = icmp ult i32 %bf.cast.i.i, 1048574
  br i1 %cmp.i.i, label %if.then.i.i, label %if.else.i.i

if.then.i.i:                                      ; preds = %entry
  %bf.value.i.i = add i64 %bf.load.i.i, 1099511627776
  %bf.shl.i.i = and i64 %bf.value.i.i, 1152920405095219200
  %bf.clear7.i.i = and i64 %bf.load.i.i, -1152920405095219201
  %bf.set.i.i = or disjoint i64 %bf.shl.i.i, %bf.clear7.i.i
  store i64 %bf.set.i.i, ptr %0, align 8
  br label %_ZN4cvc58internal8TypeNodeC2ERKS1_.exit

if.else.i.i:                                      ; preds = %entry
  %cmp12.i.i = icmp eq i32 %bf.cast.i.i, 1048574
  br i1 %cmp12.i.i, label %if.then13.i.i, label %_ZN4cvc58internal8TypeNodeC2ERKS1_.exit

if.then13.i.i:                                    ; preds = %if.else.i.i
  %bf.set23.i.i = or i64 %bf.load.i.i, 1152920405095219200
  store i64 %bf.set23.i.i, ptr %0, align 8
  tail call void @_ZN4cvc58internal4expr9NodeValue20markRefCountMaxedOutEv(ptr noundef nonnull align 8 dereferenceable(16) %0)
  br label %_ZN4cvc58internal8TypeNodeC2ERKS1_.exit

_ZN4cvc58internal8TypeNodeC2ERKS1_.exit:          ; preds = %if.then.i.i, %if.else.i.i, %if.then13.i.i
  %d_unres_tn = getelementptr inbounds i8, ptr %this, i64 8
  %2 = load ptr, ptr %unres_tn, align 8
  store ptr %2, ptr %d_unres_tn, align 8
  %bf.load.i.i3 = load i64, ptr %2, align 8
  %bf.lshr.i.i4 = lshr i64 %bf.load.i.i3, 40
  %3 = trunc i64 %bf.lshr.i.i4 to i32
  %bf.cast.i.i5 = and i32 %3, 1048575
  %cmp.i.i6 = icmp ult i32 %bf.cast.i.i5, 1048574
  br i1 %cmp.i.i6, label %if.then.i.i11, label %if.else.i.i7

if.then.i.i11:                                    ; preds = %_ZN4cvc58internal8TypeNodeC2ERKS1_.exit
  %bf.value.i.i12 = add i64 %bf.load.i.i3, 1099511627776
  %bf.shl.i.i13 = and i64 %bf.value.i.i12, 1152920405095219200
  %bf.clear7.i.i14 = and i64 %bf.load.i.i3, -1152920405095219201
  %bf.set.i.i15 = or disjoint i64 %bf.shl.i.i13, %bf.clear7.i.i14
  store i64 %bf.set.i.i15, ptr %2, align 8
  br label %invoke.cont

if.else.i.i7:                                     ; preds = %_ZN4cvc58internal8TypeNodeC2ERKS1_.exit
  %cmp12.i.i8 = icmp eq i32 %bf.cast.i.i5, 1048574
  br i1 %cmp12.i.i8, label %if.then13.i.i9, label %invoke.cont

if.then13.i.i9:                                   ; preds = %if.else.i.i7
  %bf.set23.i.i10 = or i64 %bf.load.i.i3, 1152920405095219200
  store i64 %bf.set23.i.i10, ptr %2, align 8
  invoke void @_ZN4cvc58internal4expr9NodeValue20markRefCountMaxedOutEv(ptr noundef nonnull align 8 dereferenceable(16) %2)
          to label %invoke.cont unwind label %lpad

invoke.cont:                                      ; preds = %if.else.i.i7, %if.then.i.i11, %if.then13.i.i9
  invoke void @_ZNK4cvc58internal8TypeNode7getNameB5cxx11Ev(ptr nonnull sret(%"class.std::__cxx11::basic_string") align 8 %ref.tmp, ptr noundef nonnull align 8 dereferenceable(8) %unres_tn)
          to label %invoke.cont3 unwind label %lpad2

invoke.cont3:                                     ; preds = %invoke.cont
  %d_sdt = getelementptr inbounds i8, ptr %this, i64 16
  invoke void @_ZN4cvc58internal13SygusDatatypeC1ERKNSt7__cxx1112basic_stringIcSt11char_traitsIcESaIcEEE(ptr noundef nonnull align 8 dereferenceable(472) %d_sdt, ptr noundef nonnull align 8 dereferenceable(32) %ref.tmp)
          to label %invoke.cont5 unwind label %lpad4

invoke.cont5:                                     ; preds = %invoke.cont3
  call void @_ZNSt7__cxx1112basic_stringIcSt11char_traitsIcESaIcEED1Ev(ptr noundef nonnull align 8 dereferenceable(32) %ref.tmp) #16
  ret void

lpad:                                             ; preds = %if.then13.i.i9
  %4 = landingpad { ptr, i32 }
          cleanup
  br label %ehcleanup6

lpad2:                                            ; preds = %invoke.cont
  %5 = landingpad { ptr, i32 }
          cleanup
  br label %ehcleanup

lpad4:                                            ; preds = %invoke.cont3
  %6 = landingpad { ptr, i32 }
          cleanup
  call void @_ZNSt7__cxx1112basic_stringIcSt11char_traitsIcESaIcEED1Ev(ptr noundef nonnull align 8 dereferenceable(32) %ref.tmp) #16
  br label %ehcleanup

ehcleanup:                                        ; preds = %lpad4, %lpad2
  %.pn = phi { ptr, i32 } [ %6, %lpad4 ], [ %5, %lpad2 ]
  call void @_ZN4cvc58internal8TypeNodeD2Ev(ptr noundef nonnull align 8 dereferenceable(8) %d_unres_tn) #16
  br label %ehcleanup6

ehcleanup6:                                       ; preds = %ehcleanup, %lpad
  %.pn.pn = phi { ptr, i32 } [ %.pn, %ehcleanup ], [ %4, %lpad ]
  call void @_ZN4cvc58internal8TypeNodeD2Ev(ptr noundef nonnull align 8 dereferenceable(8) %this) #16
  resume { ptr, i32 } %.pn.pn
}